; Function Attrs: mustprogress nofree norecurse nosync nounwind willreturn memory(read, inaccessiblemem: none) uwtable
define <2 x float> @_ZN5ImGui21GetContentRegionAvailEv() local_unnamed_addr #43 {
  %1 = load ptr, ptr @GImGui, align 8, !tbaa !216
  %2 = getelementptr inbounds nuw i8, ptr %1, i64 5016
  %3 = load ptr, ptr %2, align 8, !tbaa !314
  %4 = getelementptr inbounds nuw i8, ptr %3, i64 448
  %5 = load ptr, ptr %4, align 8, !tbaa !346
  %.not = icmp eq ptr %5, null
  br i1 %.not, label %6, label %9

6:                                                ; preds = %0
  %7 = getelementptr inbounds nuw i8, ptr %1, i64 8640
  %8 = load ptr, ptr %7, align 8, !tbaa !351
  %.not6 = icmp eq ptr %8, null
  %spec.select = select i1 %.not6, i64 624, i64 576
  br label %9

9:                                                ; preds = %6, %0
  %.sink = phi i64 [ 576, %0 ], [ %spec.select, %6 ]
  %10 = getelementptr inbounds nuw i8, ptr %3, i64 %.sink
  %11 = getelementptr inbounds nuw i8, ptr %3, i64 280
  %12 = load float, ptr %10, align 8
  %.sroa_idx = getelementptr inbounds nuw i8, ptr %10, i64 4
  %13 = load float, ptr %.sroa_idx, align 4
  %.val8 = load float, ptr %11, align 4, !tbaa !50
  %14 = getelementptr i8, ptr %3, i64 284
  %.val9 = load float, ptr %14, align 4, !tbaa !51
  %15 = fsub float %12, %.val8
  %16 = fsub float %13, %.val9
  %.sroa.0.0.vec.insert.i = insertelement <2 x float> poison, float %15, i64 0
  %.sroa.0.4.vec.insert.i = insertelement <2 x float> %.sroa.0.0.vec.insert.i, float %16, i64 1
  ret <2 x float> %.sroa.0.4.vec.insert.i
}